ASxxxx Linker V03.00 + NoICE + sdld,  page 1.
Hexadecimal  [32-Bits]

Area                                    Addr        Size        Decimal Bytes (Attributes)
--------------------------------        ----        ----        ------- ----- ------------
.  .ABS.                            00000000    00000000 =           0. bytes (ABS,CON)

      Value  Global                              Global Defined In Module
      -----  --------------------------------   ------------------------
     00000000  .__.ABS.                           cpct_video
     00000000  l__CABS                         
     00000000  l__DABS                         
     00000000  l__DATA                         
     00000000  l__GSFINAL                      
     00000000  l__GSINIT                       
     00000000  l__HOME                         
     00000000  l__INITIALIZED                  
     00000000  l__INITIALIZER                  
     00000000  s__CABS                         
     00000000  s__DABS                         
     00000853  l__CODE                         
     00004000  s__CODE                         
     00004853  s__DATA                         
     00004853  s__GSFINAL                      
     00004853  s__GSINIT                       
     00004853  s__HOME                         
     00004853  s__INITIALIZED                  
     00004853  s__INITIALIZER                  

ASxxxx Linker V03.00 + NoICE + sdld,  page 2.
Hexadecimal  [32-Bits]

Area                                    Addr        Size        Decimal Bytes (Attributes)
--------------------------------        ----        ----        ------- ----- ------------
_CODE                               00004000    00000853 =        2131. bytes (REL,CON)

      Value  Global                              Global Defined In Module
      -----  --------------------------------   ------------------------
     00004000  _max                               max
     000041F4  _uno                               uno
     00004234  _fuego                             fuego
     00004254  _tiles_8x8_0                       tiles_8x8_M0
     00004274  _tiles_8x8_1                       tiles_8x8_M0
     00004294  _tiles_8x8_2                       tiles_8x8_M0
     000042B4  _tiles_8x8_3                       tiles_8x8_M0
     000042D4  _tiles_8x8_4                       tiles_8x8_M0
     000042F4  _tiles_8x8_5                       tiles_8x8_M0
     00004314  _tiles_8x8_6                       tiles_8x8_M0
     00004334  _tiles_8x8_7                       tiles_8x8_M0
     00004354  _pinta_mapa                        mapas
     00004355  _tiles_16x8_0                      tiles_16x8_M1
     00004375  _tiles_16x8_1                      tiles_16x8_M1
     00004395  _tiles_16x8_2                      tiles_16x8_M1
     000043B5  _tiles_16x8_3                      tiles_16x8_M1
     000043D5  _tiles_16x8_4                      tiles_16x8_M1
     000043F5  _tiles_16x8_5                      tiles_16x8_M1
     00004415  _tiles_16x8_6                      tiles_16x8_M1
     00004435  _tiles_16x8_7                      tiles_16x8_M1
     00004455  set_tilemap                        set_draw_tilemap_4x8.s
     00004463  draw_tilemap                       set_draw_tilemap_4x8.s
     0000446D  _main                              cpct_keyboard
     00004489  array_entidades                    array_entidades.s
     000044ED  byte_fin                           array_entidades.s
     000044EE  primera_entidad_libre              array_entidades.s
     000044F0  jugador                            declaracion_entidades.s
     000044F9  enemigo                            declaracion_entidades.s
     000045A7  pintar_sprites                     pinta_sprites
     000045B8  espera_pulsacion_alguna_tecla      rutinas_espera_tecla.s
     000045C9  setreg                             setreg
     000045DE  copia_entidad_al_array             sys_prepara_array.s
     000045EC  crea_entidad                       sys_prepara_array.s
     000045F3  cls                                cls
     000045FF  cpct_etm_drawTilemap4x8_ag_asm     cpct_easytilemaps
     00004601  cpct_etm_dtm4x8_ag_asm_widthHeig   cpct_easytilemaps
     00004617  cpct_etm_dtm4x8_ag_asm_tilesetPt   cpct_easytilemaps
     00004682  cpct_etm_dtm4x8_ag_asm_restoreI    cpct_easytilemaps
     00004688  cpct_etm_dtm4x8_ag_asm_increment   cpct_easytilemaps
     0000468D  cpct_etm_dtm4x8_ag_asm_restoreWi   cpct_easytilemaps
     00004690  cpct_etm_dtm4x8_ag_asm_updateWid   cpct_easytilemaps
     00004698  my_cpct_etm_setDrawTilemap4x8_ag   cpct_easytilemaps
     000046C4  my_draw_sprite                     my_cpct_sprites
     00004765  _cpct_scanKeyboard_f               cpct_keyboard
     00004765  cpct_scanKeyboard_f_asm            cpct_keyboard
     000047CF  cpct_setPALColour_asm              cpct_video
     000047D9  _cpct_setVideoMemoryOffset         cpct_video
     000047D9  cpct_setVideoMemoryOffset_asm      cpct_video
     000047E2  _cpct_keyboardStatusBuffer         cpct_keyboard
     000047EC  _cpct_setVideoMemoryPage           cpct_video
ASxxxx Linker V03.00 + NoICE + sdld,  page 3.
Hexadecimal  [32-Bits]

Area                                    Addr        Size        Decimal Bytes (Attributes)
--------------------------------        ----        ----        ------- ----- ------------
_CODE                               00004000    00000853 =        2131. bytes (REL,CON)

      Value  Global                              Global Defined In Module
      -----  --------------------------------   ------------------------
     000047EC  cpct_setVideoMemoryPage_asm        cpct_video
     000047F5  _cpct_isAnyKeyPressed_f            cpct_keyboard
     000047F5  cpct_isAnyKeyPressed_f_asm         cpct_keyboard
     00004810  _cpct_waitVSYNC                    cpct_video
     00004810  cpct_waitVSYNC_asm                 cpct_video
     00004818  cpct_setVideoMode_asm              cpct_video
     00004825  _cpct_disableFirmware              cpct_firmware
     00004825  _cpct_removeInterruptHandler       cpct_firmware
     00004825  cpct_disableFirmware_asm           cpct_firmware
     00004825  cpct_removeInterruptHandler_asm    cpct_firmware
     00004835  _cpct_mode_rom_status              cpct_firmware
     00004836  cpct_getScreenPtr_asm              cpct_video
     00004848  cpct_setCRTCReg_asm                cpct_video
ASxxxx Linker V03.00 + NoICE + sdld,  page 4.

Files Linked                              [ module(s) ]

obj/mapas/max.rel                         [ max ]
obj/media/uno.rel                         [ uno ]
obj/media/fuego.rel                       [ fuego ]
obj/media/tiles_8x8_M0.rel                [ tiles_8x8_M0 ]
obj/mapas.rel                             [ mapas ]
obj/media/tiles_16x8_M1.rel               [ tiles_16x8_M1 ]
obj/draw_tilemap.rel                      [ set_draw_tilemap_4x8.s ]
obj/main.rel                              [ cpct_keyboard ]
obj/manager/array_entidades.rel           [ array_entidades.s ]
obj/manager/declaracion_entidades.rel     [ declaracion_entidades.s ]
obj/sistemas/my_draw_sprite.rel           [ cpct_sprites ]
obj/sistemas/pinta_sprites.rel            [ pinta_sprites ]
obj/sistemas/rutinas_espera_tecla.rel     [ rutinas_espera_tecla.s ]
obj/sistemas/setreg.rel                   [ setreg ]
obj/sistemas/sys_prepara_array.rel        [ sys_prepara_array.s ]
obj/rutinas/cls.rel                       [ cls ]
obj/cpct_func/cpct_etm_drawTilemap4x8_ag_asmbindings.rel
                                          [ cpct_easytilemaps ]
obj/cpct_func/my_cpct_etm_setDrawTilemap4x8_ag_asmbindings.rel
                                          [ cpct_easytilemaps ]
obj/cpct_func/my_draw_sprite.rel          [ my_cpct_sprites ]


Libraries Linked                          [ object file ]

/home/raul/cpctelera/cpctelera/cpctelera.lib
                                          [ cpct_scanKeyboard_f.rel ]
/home/raul/cpctelera/cpctelera/cpctelera.lib
                                          [ cpct_setPALColour_asmbindings.re ]
/home/raul/cpctelera/cpctelera/cpctelera.lib
                                          [ cpct_setVideoMemoryOffset.rel ]
/home/raul/cpctelera/cpctelera/cpctelera.lib
                                          [ keyboard.rel ]
/home/raul/cpctelera/cpctelera/cpctelera.lib
                                          [ cpct_setVideoMemoryPage.rel ]
/home/raul/cpctelera/cpctelera/cpctelera.lib
                                          [ cpct_isAnyKeyPressed_f.rel ]
/home/raul/cpctelera/cpctelera/cpctelera.lib
                                          [ cpct_waitVSYNC.rel ]
/home/raul/cpctelera/cpctelera/cpctelera.lib
                                          [ cpct_setVideoMode_asmbindings.re ]
/home/raul/cpctelera/cpctelera/cpctelera.lib
                                          [ cpct_removeInterruptHandler.rel ]
/home/raul/cpctelera/cpctelera/cpctelera.lib
                                          [ cpc_mode_rom_status.rel ]
/home/raul/cpctelera/cpctelera/cpctelera.lib
                                          [ cpct_getScreenPtr_asmbindings.re ]
/home/raul/cpctelera/cpctelera/cpctelera.lib
                                          [ cpct_setCRTCReg_asmbindings.rel ]

ASxxxx Linker V03.00 + NoICE + sdld,  page 5.

User Base Address Definitions

_CODE = 0x4000
_DATA = 0x0000

